target datalayout = "e-m:e-p270:32:32-p271:32:32-p272:64:64-i64:64-i128:128-f80:128-n8:16:32:64-S128"
target triple = "x86_64-pc-linux-gnu"

%class.ciField = type { %class.ciFlags, ptr, ptr, ptr, ptr, i32, i8, ptr, ptr, %class.ciConstant }
%class.ciFlags = type <{ i32, i8, i8, [2 x i8] }>
%class.ciConstant = type { i8, %union.anon }
%union.anon = type { i64 }
%class.ciMetadata = type { %class.ciBaseObject.base, ptr }
%class.ciBaseObject.base = type <{ ptr, i32 }>
%class.ciType.base = type <{ %class.ciMetadata, i8 }>
%class.ciKlass = type <{ %class.ciType.base, [7 x i8], ptr, i32, [4 x i8] }>

; Function Attrs: mustprogress nounwind uwtable
define linkonce_odr hidden noundef ptr @_ZN9ciSymbols24java_lang_Long_LongCacheEv() #1 comdat align 2 {
  %1 = call noundef ptr @_ZN15ciObjectFactory12vm_symbol_atE10vmSymbolID(i32 noundef 35)
  ret ptr %1
}

; Function Attrs: mustprogress nounwind uwtable
define linkonce_odr hidden noundef ptr @_ZN9ciSymbols30java_lang_Integer_IntegerCacheEv() #1 comdat align 2 {
  %1 = call noundef ptr @_ZN15ciObjectFactory12vm_symbol_atE10vmSymbolID(i32 noundef 33)
  ret ptr %1
}

; Function Attrs: mustprogress nounwind uwtable
define linkonce_odr hidden noundef ptr @_ZN9ciSymbols26java_lang_Short_ShortCacheEv() #1 comdat align 2 {
  %1 = call noundef ptr @_ZN15ciObjectFactory12vm_symbol_atE10vmSymbolID(i32 noundef 31)
  ret ptr %1
}

; Function Attrs: mustprogress nounwind uwtable
define linkonce_odr hidden noundef ptr @_ZN9ciSymbols24java_lang_Byte_ByteCacheEv() #1 comdat align 2 {
  %1 = call noundef ptr @_ZN15ciObjectFactory12vm_symbol_atE10vmSymbolID(i32 noundef 29)
  ret ptr %1
}

; Function Attrs: mustprogress nounwind uwtable
define linkonce_odr hidden noundef ptr @_ZN9ciSymbols34java_lang_Character_CharacterCacheEv() #1 comdat align 2 {
  %1 = call noundef ptr @_ZN15ciObjectFactory12vm_symbol_atE10vmSymbolID(i32 noundef 24)
  ret ptr %1
}

; Function Attrs: mustprogress nounwind uwtable
define linkonce_odr hidden noundef ptr @_ZN9ciSymbols16cache_field_nameEv() #1 comdat align 2 {
  %1 = call noundef ptr @_ZN15ciObjectFactory12vm_symbol_atE10vmSymbolID(i32 noundef 456)
  ret ptr %1
}

; Function Attrs: mustprogress nounwind uwtable
define linkonce_odr hidden noundef ptr @_ZNK7ciField4nameEv(ptr noundef nonnull align 8 dereferenceable(80) %0) #1 comdat align 2 {
  %2 = alloca ptr, align 8
  store ptr %0, ptr %2, align 8
  %3 = load ptr, ptr %2, align 8
  %4 = getelementptr inbounds %class.ciField, ptr %3, i32 0, i32 2
  %5 = load ptr, ptr %4, align 8
  ret ptr %5
}

; Function Attrs: mustprogress nounwind uwtable
define linkonce_odr hidden noundef ptr @_ZNK7ciKlass4nameEv(ptr noundef nonnull align 8 dereferenceable(44) %0) #1 comdat align 2 {
  %2 = alloca ptr, align 8
  store ptr %0, ptr %2, align 8
  %3 = load ptr, ptr %2, align 8
  %4 = getelementptr inbounds %class.ciKlass, ptr %3, i32 0, i32 2
  %5 = load ptr, ptr %4, align 8
  ret ptr %5
}

; Function Attrs: mustprogress nounwind uwtable
define linkonce_odr hidden noundef ptr @_ZNK7ciField6holderEv(ptr noundef nonnull align 8 dereferenceable(80) %0) #1 comdat align 2 {
  %2 = alloca ptr, align 8
  store ptr %0, ptr %2, align 8
  %3 = load ptr, ptr %2, align 8
  %4 = getelementptr inbounds %class.ciField, ptr %3, i32 0, i32 1
  %5 = load ptr, ptr %4, align 8
  ret ptr %5
}

; Function Attrs: mustprogress nounwind uwtable
define hidden noundef zeroext i1 @_ZN7ciField16is_autobox_cacheEv(ptr noundef nonnull align 8 dereferenceable(80) %0) #1 align 2 {
  %2 = alloca ptr, align 8
  %3 = alloca ptr, align 8
  store ptr %0, ptr %2, align 8
  %4 = load ptr, ptr %2, align 8
  %5 = call noundef ptr @_ZNK7ciField6holderEv(ptr noundef nonnull align 8 dereferenceable(80) %4)
  %6 = call noundef ptr @_ZNK7ciKlass4nameEv(ptr noundef nonnull align 8 dereferenceable(44) %5)
  store ptr %6, ptr %3, align 8
  %7 = call noundef ptr @_ZNK7ciField4nameEv(ptr noundef nonnull align 8 dereferenceable(80) %4)
  %8 = call noundef ptr @_ZN9ciSymbols16cache_field_nameEv()
  %9 = icmp eq ptr %7, %8
  br i1 %9, label %10, label %35

10:                                               ; preds = %1
  %11 = call noundef ptr @_ZNK7ciField6holderEv(ptr noundef nonnull align 8 dereferenceable(80) %4)
  %12 = call noundef zeroext i1 @_ZNK15ciInstanceKlass19uses_default_loaderEv(ptr noundef nonnull align 8 dereferenceable(144) %11)
  br i1 %12, label %13, label %35

13:                                               ; preds = %10
  %14 = load ptr, ptr %3, align 8
  %15 = call noundef ptr @_ZN9ciSymbols34java_lang_Character_CharacterCacheEv()
  %16 = icmp eq ptr %14, %15
  br i1 %16, label %33, label %17

17:                                               ; preds = %13
  %18 = load ptr, ptr %3, align 8
  %19 = call noundef ptr @_ZN9ciSymbols24java_lang_Byte_ByteCacheEv()
  %20 = icmp eq ptr %18, %19
  br i1 %20, label %33, label %21

21:                                               ; preds = %17
  %22 = load ptr, ptr %3, align 8
  %23 = call noundef ptr @_ZN9ciSymbols26java_lang_Short_ShortCacheEv()
  %24 = icmp eq ptr %22, %23
  br i1 %24, label %33, label %25

25:                                               ; preds = %21
  %26 = load ptr, ptr %3, align 8
  %27 = call noundef ptr @_ZN9ciSymbols30java_lang_Integer_IntegerCacheEv()
  %28 = icmp eq ptr %26, %27
  br i1 %28, label %33, label %29

29:                                               ; preds = %25
  %30 = load ptr, ptr %3, align 8
  %31 = call noundef ptr @_ZN9ciSymbols24java_lang_Long_LongCacheEv()
  %32 = icmp eq ptr %30, %31
  br label %33

33:                                               ; preds = %29, %25, %21, %17, %13
  %34 = phi i1 [ true, %25 ], [ true, %21 ], [ true, %17 ], [ true, %13 ], [ %32, %29 ]
  br label %35

35:                                               ; preds = %33, %10, %1
  %36 = phi i1 [ false, %10 ], [ false, %1 ], [ %34, %33 ]
  ret i1 %36
}