; Function Attrs: mustprogress nounwind uwtable
define hidden noundef zeroext i1 @_ZN7ciField16is_autobox_cacheEv(ptr nocapture noundef nonnull readonly align 8 dereferenceable(80) %0) local_unnamed_addr #0 align 2 {
  %2 = getelementptr inbounds i8, ptr %0, i64 8
  %3 = load ptr, ptr %2, align 8
  %4 = getelementptr inbounds i8, ptr %3, i64 32
  %5 = load ptr, ptr %4, align 8
  %6 = getelementptr inbounds i8, ptr %0, i64 16
  %7 = load ptr, ptr %6, align 8
  %8 = tail call noundef ptr @_ZN15ciObjectFactory12vm_symbol_atE10vmSymbolID(i32 noundef 456) #8
  %9 = icmp eq ptr %7, %8
  br i1 %9, label %10, label %28

10:                                               ; preds = %1
  %11 = load ptr, ptr %2, align 8
  %12 = tail call noundef zeroext i1 @_ZNK15ciInstanceKlass19uses_default_loaderEv(ptr noundef nonnull align 8 dereferenceable(144) %11) #8
  br i1 %12, label %13, label %28

13:                                               ; preds = %10
  %14 = tail call noundef ptr @_ZN15ciObjectFactory12vm_symbol_atE10vmSymbolID(i32 noundef 24) #8
  %15 = icmp eq ptr %5, %14
  br i1 %15, label %28, label %16

16:                                               ; preds = %13
  %17 = tail call noundef ptr @_ZN15ciObjectFactory12vm_symbol_atE10vmSymbolID(i32 noundef 29) #8
  %18 = icmp eq ptr %5, %17
  br i1 %18, label %28, label %19

19:                                               ; preds = %16
  %20 = tail call noundef ptr @_ZN15ciObjectFactory12vm_symbol_atE10vmSymbolID(i32 noundef 31) #8
  %21 = icmp eq ptr %5, %20
  br i1 %21, label %28, label %22

22:                                               ; preds = %19
  %23 = tail call noundef ptr @_ZN15ciObjectFactory12vm_symbol_atE10vmSymbolID(i32 noundef 33) #8
  %24 = icmp eq ptr %5, %23
  br i1 %24, label %28, label %25

25:                                               ; preds = %22
  %26 = tail call noundef ptr @_ZN15ciObjectFactory12vm_symbol_atE10vmSymbolID(i32 noundef 35) #8
  %27 = icmp eq ptr %5, %26
  br label %28

28:                                               ; preds = %13, %16, %19, %22, %25, %10, %1
  %29 = phi i1 [ false, %10 ], [ false, %1 ], [ true, %22 ], [ true, %19 ], [ true, %16 ], [ true, %13 ], [ %27, %25 ]
  ret i1 %29
}